; Function Attrs: mustprogress uwtable
define hidden void @_ZN5zxing12ErrorHandler5ResetEv(ptr noundef nonnull align 8 dereferenceable(48) initializes((12, 16)) %0) unnamed_addr #2 align 2 {
  %2 = getelementptr inbounds nuw i8, ptr %0, i64 12
  store i32 0, ptr %2, align 4, !tbaa !6
  %3 = getelementptr inbounds nuw i8, ptr %0, i64 16
  %4 = getelementptr inbounds nuw i8, ptr %0, i64 24
  %5 = load i64, ptr %4, align 8, !tbaa !16
  %6 = tail call noundef nonnull align 8 dereferenceable(32) ptr @_ZNSt7__cxx1112basic_stringIcSt11char_traitsIcESaIcEE10_M_replaceEmmPKcm(ptr noundef nonnull align 8 dereferenceable(32) %3, i64 noundef 0, i64 noundef %5, ptr noundef nonnull @.str, i64 noundef 0)
  ret void
}